target datalayout = "e-m:e-p270:32:32-p271:32:32-p272:64:64-i64:64-i128:128-f80:128-n8:16:32:64-S128"
target triple = "x86_64-pc-linux-gnu"

%struct._packet_info = type { ptr, ptr, i32, i32, %struct.nstime_t, %struct.nstime_t, %struct.nstime_t, i8, ptr, ptr, ptr, ptr, %struct._address, %struct._address, %struct._address, %struct._address, %struct._address, %struct._address, i32, ptr, i8, [3 x i8], %struct.anon, i32, i32, i32, i32, ptr, i8, ptr, ptr, i16, i16, i32, i32, i16, i32, i32, ptr, ptr, ptr, i8, i8, i16, i16, i16, i32, i16, i16, ptr, ptr, ptr, ptr, ptr, i32, i32 }
%struct.nstime_t = type { i64, i32 }
%struct._address = type { i32, i32, ptr, ptr }
%struct.anon = type { i8, [3 x i8] }
%struct.wscbor_chunk_t = type { ptr, i32, i32, i32, ptr, ptr, i32, i8, i64 }
%struct.wscbor_tag_t = type { i32, i32, i64 }

@proto_cose = internal global i32 0, align 4
@hf_msg_tag = internal global i32 0, align 4
@hf_payload_null = internal global i32 0, align 4
@hf_payload_bstr = internal global i32 0, align 4
@hf_tag = internal global i32 0, align 4
@ett_msg = internal global i32 0, align 4
@.str.238 = private unnamed_addr constant [11 x i8] c": COSE_Mac\00", align 1

; Function Attrs: null_pointer_is_valid sspstrong uwtable
define internal void @dissect_tag(ptr noundef %0, ptr noundef %1, ptr noundef %2, ptr noundef %3) #0 {
  %5 = alloca ptr, align 8
  %6 = alloca ptr, align 8
  %7 = alloca ptr, align 8
  %8 = alloca ptr, align 8
  %9 = alloca ptr, align 8
  store ptr %0, ptr %5, align 8
  store ptr %1, ptr %6, align 8
  store ptr %2, ptr %7, align 8
  store ptr %3, ptr %8, align 8
  call void @llvm.lifetime.start.p0(i64 8, ptr %9) #12
  %10 = load ptr, ptr %6, align 8
  %11 = getelementptr inbounds nuw %struct._packet_info, ptr %10, i32 0, i32 51
  %12 = load ptr, ptr %11, align 8
  %13 = load ptr, ptr %5, align 8
  %14 = load ptr, ptr %8, align 8
  %15 = call ptr @wscbor_chunk_read(ptr noundef %12, ptr noundef %13, ptr noundef %14)
  store ptr %15, ptr %9, align 8
  %16 = load ptr, ptr %6, align 8
  %17 = getelementptr inbounds nuw %struct._packet_info, ptr %16, i32 0, i32 51
  %18 = load ptr, ptr %17, align 8
  %19 = load ptr, ptr %9, align 8
  %20 = call ptr @wscbor_require_bstr(ptr noundef %18, ptr noundef %19)
  %21 = load ptr, ptr %7, align 8
  %22 = load i32, ptr @hf_tag, align 4
  %23 = load ptr, ptr %6, align 8
  %24 = load ptr, ptr %5, align 8
  %25 = load ptr, ptr %9, align 8
  %26 = call ptr @proto_tree_add_cbor_bstr(ptr noundef %21, i32 noundef %22, ptr noundef %23, ptr noundef %24, ptr noundef %25)
  call void @llvm.lifetime.end.p0(i64 8, ptr %9) #12
  ret void
}

; Function Attrs: null_pointer_is_valid sspstrong uwtable
define internal void @dissect_payload(ptr noundef %0, ptr noundef %1, ptr noundef %2, ptr noundef %3) #0 {
  %5 = alloca ptr, align 8
  %6 = alloca ptr, align 8
  %7 = alloca ptr, align 8
  %8 = alloca ptr, align 8
  %9 = alloca ptr, align 8
  store ptr %0, ptr %5, align 8
  store ptr %1, ptr %6, align 8
  store ptr %2, ptr %7, align 8
  store ptr %3, ptr %8, align 8
  call void @llvm.lifetime.start.p0(i64 8, ptr %9) #12
  %10 = load ptr, ptr %6, align 8
  %11 = getelementptr inbounds nuw %struct._packet_info, ptr %10, i32 0, i32 51
  %12 = load ptr, ptr %11, align 8
  %13 = load ptr, ptr %5, align 8
  %14 = load ptr, ptr %8, align 8
  %15 = call ptr @wscbor_chunk_read(ptr noundef %12, ptr noundef %13, ptr noundef %14)
  store ptr %15, ptr %9, align 8
  %16 = load ptr, ptr %9, align 8
  %17 = getelementptr inbounds nuw %struct.wscbor_chunk_t, ptr %16, i32 0, i32 6
  %18 = load i32, ptr %17, align 8
  %19 = icmp eq i32 %18, 7
  br i1 %19, label %20, label %27

20:                                               ; preds = %4
  %21 = load ptr, ptr %7, align 8
  %22 = load i32, ptr @hf_payload_null, align 4
  %23 = load ptr, ptr %6, align 8
  %24 = load ptr, ptr %5, align 8
  %25 = load ptr, ptr %9, align 8
  %26 = call ptr @proto_tree_add_cbor_ctrl(ptr noundef %21, i32 noundef %22, ptr noundef %23, ptr noundef %24, ptr noundef %25)
  br label %39

27:                                               ; preds = %4
  %28 = load ptr, ptr %6, align 8
  %29 = getelementptr inbounds nuw %struct._packet_info, ptr %28, i32 0, i32 51
  %30 = load ptr, ptr %29, align 8
  %31 = load ptr, ptr %9, align 8
  %32 = call ptr @wscbor_require_bstr(ptr noundef %30, ptr noundef %31)
  %33 = load ptr, ptr %7, align 8
  %34 = load i32, ptr @hf_payload_bstr, align 4
  %35 = load ptr, ptr %6, align 8
  %36 = load ptr, ptr %5, align 8
  %37 = load ptr, ptr %9, align 8
  %38 = call ptr @proto_tree_add_cbor_bstr(ptr noundef %33, i32 noundef %34, ptr noundef %35, ptr noundef %36, ptr noundef %37)
  br label %39

39:                                               ; preds = %27, %20
  call void @llvm.lifetime.end.p0(i64 8, ptr %9) #12
  ret void
}

; Function Attrs: null_pointer_is_valid sspstrong uwtable
define internal void @dissect_msg_tag(ptr noundef %0, ptr noundef %1, ptr noundef %2, ptr noundef %3, ptr noundef %4) #0 {
  %6 = alloca ptr, align 8
  %7 = alloca ptr, align 8
  %8 = alloca ptr, align 8
  %9 = alloca ptr, align 8
  %10 = alloca ptr, align 8
  %11 = alloca ptr, align 8
  store ptr %0, ptr %6, align 8
  store ptr %1, ptr %7, align 8
  store ptr %2, ptr %8, align 8
  store ptr %3, ptr %9, align 8
  store ptr %4, ptr %10, align 8
  %12 = load ptr, ptr %10, align 8
  %13 = icmp ne ptr %12, null
  br i1 %13, label %15, label %14

14:                                               ; preds = %5
  br label %30

15:                                               ; preds = %5
  call void @llvm.lifetime.start.p0(i64 8, ptr %11) #12
  %16 = load ptr, ptr %10, align 8
  store ptr %16, ptr %11, align 8
  %17 = load ptr, ptr %8, align 8
  %18 = load i32, ptr @hf_msg_tag, align 4
  %19 = load ptr, ptr %6, align 8
  %20 = load ptr, ptr %11, align 8
  %21 = getelementptr inbounds nuw %struct.wscbor_tag_t, ptr %20, i32 0, i32 0
  %22 = load i32, ptr %21, align 8
  %23 = load ptr, ptr %11, align 8
  %24 = getelementptr inbounds nuw %struct.wscbor_tag_t, ptr %23, i32 0, i32 1
  %25 = load i32, ptr %24, align 4
  %26 = load ptr, ptr %11, align 8
  %27 = getelementptr inbounds nuw %struct.wscbor_tag_t, ptr %26, i32 0, i32 2
  %28 = load i64, ptr %27, align 8
  %29 = call ptr @proto_tree_add_uint64(ptr noundef %17, i32 noundef %18, ptr noundef %19, i32 noundef %22, i32 noundef %25, i64 noundef %28)
  call void @llvm.lifetime.end.p0(i64 8, ptr %11) #12
  br label %30

30:                                               ; preds = %15, %14
  ret void
}

; Function Attrs: null_pointer_is_valid sspstrong uwtable
define internal i32 @dissect_cose_mac(ptr noundef %0, ptr noundef %1, ptr noundef %2, ptr noundef %3) #0 {
  %5 = alloca ptr, align 8
  %6 = alloca ptr, align 8
  %7 = alloca ptr, align 8
  %8 = alloca ptr, align 8
  %9 = alloca i32, align 4
  %10 = alloca ptr, align 8
  %11 = alloca ptr, align 8
  %12 = alloca ptr, align 8
  store ptr %0, ptr %5, align 8
  store ptr %1, ptr %6, align 8
  store ptr %2, ptr %7, align 8
  store ptr %3, ptr %8, align 8
  call void @llvm.lifetime.start.p0(i64 4, ptr %9) #12
  store i32 0, ptr %9, align 4
  call void @llvm.lifetime.start.p0(i64 8, ptr %10) #12
  %13 = load ptr, ptr %6, align 8
  %14 = getelementptr inbounds nuw %struct._packet_info, ptr %13, i32 0, i32 51
  %15 = load ptr, ptr %14, align 8
  %16 = load ptr, ptr %5, align 8
  %17 = call ptr @wscbor_chunk_read(ptr noundef %15, ptr noundef %16, ptr noundef %9)
  store ptr %17, ptr %10, align 8
  %18 = load ptr, ptr %10, align 8
  %19 = call zeroext i1 @wscbor_require_array_size(ptr noundef %18, i64 noundef 5, i64 noundef 5)
  call void @llvm.lifetime.start.p0(i64 8, ptr %11) #12
  %20 = load ptr, ptr %7, align 8
  %21 = load i32, ptr @proto_cose, align 4
  %22 = load ptr, ptr %6, align 8
  %23 = load ptr, ptr %5, align 8
  %24 = load ptr, ptr %10, align 8
  %25 = call ptr @proto_tree_add_cbor_container(ptr noundef %20, i32 noundef %21, ptr noundef %22, ptr noundef %23, ptr noundef %24)
  store ptr %25, ptr %11, align 8
  %26 = load ptr, ptr %11, align 8
  call void (ptr, ptr, ...) @proto_item_append_text(ptr noundef %26, ptr noundef @.str.238)
  %27 = load ptr, ptr %6, align 8
  %28 = getelementptr inbounds nuw %struct._packet_info, ptr %27, i32 0, i32 51
  %29 = load ptr, ptr %28, align 8
  %30 = load ptr, ptr %5, align 8
  %31 = load ptr, ptr %10, align 8
  %32 = call zeroext i1 @wscbor_skip_if_errors(ptr noundef %29, ptr noundef %30, ptr noundef %9, ptr noundef %31)
  br i1 %32, label %54, label %33

33:                                               ; preds = %4
  call void @llvm.lifetime.start.p0(i64 8, ptr %12) #12
  %34 = load ptr, ptr %11, align 8
  %35 = load i32, ptr @ett_msg, align 4
  %36 = call ptr @proto_item_add_subtree(ptr noundef %34, i32 noundef %35)
  store ptr %36, ptr %12, align 8
  %37 = load ptr, ptr %5, align 8
  %38 = load ptr, ptr %6, align 8
  %39 = load ptr, ptr %12, align 8
  %40 = load ptr, ptr %10, align 8
  %41 = load ptr, ptr %8, align 8
  call void @dissect_msg_tag(ptr noundef %37, ptr noundef %38, ptr noundef %39, ptr noundef %40, ptr noundef %41)
  %42 = load ptr, ptr %5, align 8
  %43 = load ptr, ptr %6, align 8
  %44 = load ptr, ptr %12, align 8
  call void @dissect_headers(ptr noundef %42, ptr noundef %43, ptr noundef %44, ptr noundef %9)
  %45 = load ptr, ptr %5, align 8
  %46 = load ptr, ptr %6, align 8
  %47 = load ptr, ptr %12, align 8
  call void @dissect_payload(ptr noundef %45, ptr noundef %46, ptr noundef %47, ptr noundef %9)
  %48 = load ptr, ptr %5, align 8
  %49 = load ptr, ptr %6, align 8
  %50 = load ptr, ptr %12, align 8
  call void @dissect_tag(ptr noundef %48, ptr noundef %49, ptr noundef %50, ptr noundef %9)
  %51 = load ptr, ptr %5, align 8
  %52 = load ptr, ptr %6, align 8
  %53 = load ptr, ptr %12, align 8
  call void @dissect_cose_recipient_list(ptr noundef %51, ptr noundef %52, ptr noundef %53, ptr noundef %9)
  call void @llvm.lifetime.end.p0(i64 8, ptr %12) #12
  br label %54

54:                                               ; preds = %33, %4
  %55 = load i32, ptr %9, align 4
  call void @llvm.lifetime.end.p0(i64 8, ptr %11) #12
  call void @llvm.lifetime.end.p0(i64 8, ptr %10) #12
  call void @llvm.lifetime.end.p0(i64 4, ptr %9) #12
  ret i32 %55
}